; Function Attrs: mustprogress uwtable
define void @_ZN4SHA1C2Ev(ptr noundef nonnull align 8 dereferenceable(64) %0) unnamed_addr #3 align 2 personality ptr @__gxx_personality_v0 {
  %2 = getelementptr inbounds nuw i8, ptr %0, i64 24
  %3 = getelementptr inbounds nuw i8, ptr %0, i64 40
  store ptr %3, ptr %2, align 8, !tbaa !6
  %4 = getelementptr inbounds nuw i8, ptr %0, i64 32
  store i64 0, ptr %4, align 8, !tbaa !12
  store i8 0, ptr %3, align 8, !tbaa !15
  store i32 1732584193, ptr %0, align 8, !tbaa !16
  %5 = getelementptr inbounds nuw i8, ptr %0, i64 4
  store i32 -271733879, ptr %5, align 4, !tbaa !16
  %6 = getelementptr inbounds nuw i8, ptr %0, i64 8
  store i32 -1732584194, ptr %6, align 8, !tbaa !16
  %7 = getelementptr inbounds nuw i8, ptr %0, i64 12
  store i32 271733878, ptr %7, align 4, !tbaa !16
  %8 = getelementptr inbounds nuw i8, ptr %0, i64 16
  store i32 -1009589776, ptr %8, align 8, !tbaa !16
  %9 = getelementptr inbounds nuw i8, ptr %0, i64 56
  store i64 0, ptr %9, align 8, !tbaa !18
  %10 = invoke noundef nonnull align 8 dereferenceable(32) ptr @_ZNSt7__cxx1112basic_stringIcSt11char_traitsIcESaIcEE10_M_replaceEmmPKcm(ptr noundef nonnull align 8 dereferenceable(32) %2, i64 noundef 0, i64 noundef 0, ptr noundef nonnull @.str, i64 noundef 0)
          to label %_ZN4SHA15resetEv.exit unwind label %11

_ZN4SHA15resetEv.exit:                            ; preds = %1
  ret void

11:                                               ; preds = %1
  %12 = landingpad { ptr, i32 }
          cleanup
  %13 = load ptr, ptr %2, align 8, !tbaa !20
  %14 = icmp eq ptr %13, %3
  br i1 %14, label %_ZNKSt7__cxx1112basic_stringIcSt11char_traitsIcESaIcEE11_M_is_localEv.exit.thread.i.i, label %_ZNKSt7__cxx1112basic_stringIcSt11char_traitsIcESaIcEE11_M_is_localEv.exit.i.i

_ZNKSt7__cxx1112basic_stringIcSt11char_traitsIcESaIcEE11_M_is_localEv.exit.thread.i.i: ; preds = %11
  %15 = load i64, ptr %4, align 8, !tbaa !12
  %16 = icmp ult i64 %15, 16
  tail call void @llvm.assume(i1 %16)
  br label %_ZNSt7__cxx1112basic_stringIcSt11char_traitsIcESaIcEED2Ev.exit

_ZNKSt7__cxx1112basic_stringIcSt11char_traitsIcESaIcEE11_M_is_localEv.exit.i.i: ; preds = %11
  %17 = load i64, ptr %3, align 8, !tbaa !15
  %18 = add i64 %17, 1
  tail call void @_ZdlPvm(ptr noundef %13, i64 noundef %18) #16
  br label %_ZNSt7__cxx1112basic_stringIcSt11char_traitsIcESaIcEED2Ev.exit

_ZNSt7__cxx1112basic_stringIcSt11char_traitsIcESaIcEED2Ev.exit: ; preds = %_ZNKSt7__cxx1112basic_stringIcSt11char_traitsIcESaIcEE11_M_is_localEv.exit.thread.i.i, %_ZNKSt7__cxx1112basic_stringIcSt11char_traitsIcESaIcEE11_M_is_localEv.exit.i.i
  resume { ptr, i32 } %12
}